; ModuleID = '56/298.cpp'
source_filename = "56/298.cpp"
target datalayout = "e-m:e-p270:32:32-p271:32:32-p272:64:64-i64:64-f80:128-n8:16:32:64-S128"
target triple = "x86_64-pc-linux-gnu"

%"class.std::ios_base::Init" = type { i8 }
%"class.std::basic_istream" = type { i32 (...)**, i64, %"class.std::basic_ios" }
%"class.std::basic_ios" = type { %"class.std::ios_base", %"class.std::basic_ostream"*, i8, i8, %"class.std::basic_streambuf"*, %"class.std::ctype"*, %"class.std::num_put"*, %"class.std::num_get"* }
%"class.std::ios_base" = type { i32 (...)**, i64, i64, i32, i32, i32, %"struct.std::ios_base::_Callback_list"*, %"struct.std::ios_base::_Words", [8 x %"struct.std::ios_base::_Words"], i32, %"struct.std::ios_base::_Words"*, %"class.std::locale" }
%"struct.std::ios_base::_Callback_list" = type { %"struct.std::ios_base::_Callback_list"*, void (i32, %"class.std::ios_base"*, i32)*, i32, i32 }
%"struct.std::ios_base::_Words" = type { i8*, i64 }
%"class.std::locale" = type { %"class.std::locale::_Impl"* }
%"class.std::locale::_Impl" = type { i32, %"class.std::locale::facet"**, i64, %"class.std::locale::facet"**, i8** }
%"class.std::locale::facet" = type <{ i32 (...)**, i32, [4 x i8] }>
%"class.std::basic_ostream" = type { i32 (...)**, %"class.std::basic_ios" }
%"class.std::basic_streambuf" = type { i32 (...)**, i8*, i8*, i8*, i8*, i8*, i8*, %"class.std::locale" }
%"class.std::ctype" = type <{ %"class.std::locale::facet.base", [4 x i8], %struct.__locale_struct*, i8, [7 x i8], i32*, i32*, i16*, i8, [256 x i8], [256 x i8], i8, [6 x i8] }>
%"class.std::locale::facet.base" = type <{ i32 (...)**, i32 }>
%struct.__locale_struct = type { [13 x %struct.__locale_data*], i16*, i32*, i32*, [13 x i8*] }
%struct.__locale_data = type opaque
%"class.std::num_put" = type { %"class.std::locale::facet.base", [4 x i8] }
%"class.std::num_get" = type { %"class.std::locale::facet.base", [4 x i8] }

@_ZStL8__ioinit = internal global %"class.std::ios_base::Init" zeroinitializer, align 1
@__dso_handle = external hidden global i8
@_ZSt3cin = external dso_local global %"class.std::basic_istream", align 8
@_ZSt4cout = external dso_local global %"class.std::basic_ostream", align 8
@llvm.global_ctors = appending global [1 x { i32, void ()*, i8* }] [{ i32, void ()*, i8* } { i32 65535, void ()* @_GLOBAL__sub_I_298.cpp, i8* null }]

; Function Attrs: noinline uwtable
define internal void @__cxx_global_var_init() #0 section ".text.startup" {
  call void @_ZNSt8ios_base4InitC1Ev(%"class.std::ios_base::Init"* @_ZStL8__ioinit)
  %1 = call i32 @__cxa_atexit(void (i8*)* bitcast (void (%"class.std::ios_base::Init"*)* @_ZNSt8ios_base4InitD1Ev to void (i8*)*), i8* getelementptr inbounds (%"class.std::ios_base::Init", %"class.std::ios_base::Init"* @_ZStL8__ioinit, i32 0, i32 0), i8* @__dso_handle) #3
  ret void
}

declare dso_local void @_ZNSt8ios_base4InitC1Ev(%"class.std::ios_base::Init"*) unnamed_addr #1

; Function Attrs: nounwind
declare dso_local void @_ZNSt8ios_base4InitD1Ev(%"class.std::ios_base::Init"*) unnamed_addr #2

; Function Attrs: nounwind
declare dso_local i32 @__cxa_atexit(void (i8*)*, i8*, i8*) #3

; Function Attrs: noinline norecurse uwtable
define dso_local i32 @main() #4 {
  %1 = alloca i32, align 4
  %2 = alloca i32, align 4
  %3 = alloca i32, align 4
  %4 = alloca i32, align 4
  %5 = alloca i32, align 4
  %6 = alloca i32, align 4
  %7 = alloca i32, align 4
  store i32 0, i32* %1, align 4
  %8 = call dereferenceable(280) %"class.std::basic_istream"* @_ZNSirsERi(%"class.std::basic_istream"* @_ZSt3cin, i32* dereferenceable(4) %2)
  %9 = load i32, i32* %2, align 4
  %10 = sdiv i32 %9, 10000
  store i32 %10, i32* %3, align 4
  %11 = load i32, i32* %2, align 4
  %12 = load i32, i32* %3, align 4
  %13 = mul nsw i32 10000, %12
  %14 = sub nsw i32 %11, %13
  %15 = sdiv i32 %14, 1000
  store i32 %15, i32* %4, align 4
  %16 = load i32, i32* %2, align 4
  %17 = load i32, i32* %3, align 4
  %18 = mul nsw i32 10000, %17
  %19 = sub nsw i32 %16, %18
  %20 = load i32, i32* %4, align 4
  %21 = mul nsw i32 1000, %20
  %22 = sub nsw i32 %19, %21
  %23 = sdiv i32 %22, 100
  store i32 %23, i32* %5, align 4
  %24 = load i32, i32* %2, align 4
  %25 = load i32, i32* %3, align 4
  %26 = mul nsw i32 10000, %25
  %27 = sub nsw i32 %24, %26
  %28 = load i32, i32* %4, align 4
  %29 = mul nsw i32 1000, %28
  %30 = sub nsw i32 %27, %29
  %31 = load i32, i32* %5, align 4
  %32 = mul nsw i32 100, %31
  %33 = sub nsw i32 %30, %32
  %34 = sdiv i32 %33, 10
  store i32 %34, i32* %6, align 4
  %35 = load i32, i32* %2, align 4
  %36 = load i32, i32* %3, align 4
  %37 = mul nsw i32 10000, %36
  %38 = sub nsw i32 %35, %37
  %39 = load i32, i32* %4, align 4
  %40 = mul nsw i32 1000, %39
  %41 = sub nsw i32 %38, %40
  %42 = load i32, i32* %5, align 4
  %43 = mul nsw i32 100, %42
  %44 = sub nsw i32 %41, %43
  %45 = load i32, i32* %6, align 4
  %46 = mul nsw i32 10, %45
  %47 = sub nsw i32 %44, %46
  store i32 %47, i32* %7, align 4
  %48 = load i32, i32* %3, align 4
  %49 = icmp ne i32 %48, 0
  br i1 %49, label %50, label %64

50:                                               ; preds = %0
  %51 = load i32, i32* %7, align 4
  %52 = mul nsw i32 10000, %51
  %53 = load i32, i32* %6, align 4
  %54 = mul nsw i32 1000, %53
  %55 = add nsw i32 %52, %54
  %56 = load i32, i32* %5, align 4
  %57 = mul nsw i32 100, %56
  %58 = add nsw i32 %55, %57
  %59 = load i32, i32* %4, align 4
  %60 = mul nsw i32 10, %59
  %61 = add nsw i32 %58, %60
  %62 = load i32, i32* %3, align 4
  %63 = add nsw i32 %61, %62
  store i32 %63, i32* %2, align 4
  br label %64

64:                                               ; preds = %50, %0
  %65 = load i32, i32* %3, align 4
  %66 = icmp eq i32 %65, 0
  br i1 %66, label %67, label %82

67:                                               ; preds = %64
  %68 = load i32, i32* %4, align 4
  %69 = icmp ne i32 %68, 0
  br i1 %69, label %70, label %82

70:                                               ; preds = %67
  %71 = load i32, i32* %7, align 4
  %72 = mul nsw i32 1000, %71
  %73 = load i32, i32* %6, align 4
  %74 = mul nsw i32 100, %73
  %75 = add nsw i32 %72, %74
  %76 = load i32, i32* %5, align 4
  %77 = mul nsw i32 10, %76
  %78 = add nsw i32 %75, %77
  %79 = load i32, i32* %4, align 4
  %80 = mul nsw i32 1, %79
  %81 = add nsw i32 %78, %80
  store i32 %81, i32* %2, align 4
  br label %82

82:                                               ; preds = %70, %67, %64
  %83 = load i32, i32* %4, align 4
  %84 = icmp eq i32 %83, 0
  br i1 %84, label %85, label %97

85:                                               ; preds = %82
  %86 = load i32, i32* %5, align 4
  %87 = icmp ne i32 %86, 0
  br i1 %87, label %88, label %97

88:                                               ; preds = %85
  %89 = load i32, i32* %7, align 4
  %90 = mul nsw i32 100, %89
  %91 = load i32, i32* %6, align 4
  %92 = mul nsw i32 10, %91
  %93 = add nsw i32 %90, %92
  %94 = load i32, i32* %5, align 4
  %95 = mul nsw i32 1, %94
  %96 = add nsw i32 %93, %95
  store i32 %96, i32* %2, align 4
  br label %97

97:                                               ; preds = %88, %85, %82
  %98 = load i32, i32* %5, align 4
  %99 = icmp eq i32 %98, 0
  br i1 %99, label %100, label %108

100:                                              ; preds = %97
  %101 = load i32, i32* %6, align 4
  %102 = icmp ne i32 %101, 0
  br i1 %102, label %103, label %108

103:                                              ; preds = %100
  %104 = load i32, i32* %7, align 4
  %105 = mul nsw i32 10, %104
  %106 = load i32, i32* %6, align 4
  %107 = add nsw i32 %105, %106
  store i32 %107, i32* %2, align 4
  br label %108

108:                                              ; preds = %103, %100, %97
  %109 = load i32, i32* %6, align 4
  %110 = icmp eq i32 %109, 0
  br i1 %110, label %111, label %116

111:                                              ; preds = %108
  %112 = load i32, i32* %7, align 4
  %113 = icmp ne i32 %112, 0
  br i1 %113, label %114, label %116

114:                                              ; preds = %111
  %115 = load i32, i32* %7, align 4
  store i32 %115, i32* %2, align 4
  br label %116

116:                                              ; preds = %114, %111, %108
  %117 = load i32, i32* %2, align 4
  %118 = call dereferenceable(272) %"class.std::basic_ostream"* @_ZNSolsEi(%"class.std::basic_ostream"* @_ZSt4cout, i32 %117)
  %119 = call dereferenceable(272) %"class.std::basic_ostream"* @_ZNSolsEPFRSoS_E(%"class.std::basic_ostream"* %118, %"class.std::basic_ostream"* (%"class.std::basic_ostream"*)* @_ZSt4endlIcSt11char_traitsIcEERSt13basic_ostreamIT_T0_ES6_)
  ret i32 0
}

declare dso_local dereferenceable(280) %"class.std::basic_istream"* @_ZNSirsERi(%"class.std::basic_istream"*, i32* dereferenceable(4)) #1

declare dso_local dereferenceable(272) %"class.std::basic_ostream"* @_ZNSolsEi(%"class.std::basic_ostream"*, i32) #1

declare dso_local dereferenceable(272) %"class.std::basic_ostream"* @_ZNSolsEPFRSoS_E(%"class.std::basic_ostream"*, %"class.std::basic_ostream"* (%"class.std::basic_ostream"*)*) #1

declare dso_local dereferenceable(272) %"class.std::basic_ostream"* @_ZSt4endlIcSt11char_traitsIcEERSt13basic_ostreamIT_T0_ES6_(%"class.std::basic_ostream"* dereferenceable(272)) #1

; Function Attrs: noinline uwtable
define internal void @_GLOBAL__sub_I_298.cpp() #0 section ".text.startup" {
  call void @__cxx_global_var_init()
  ret void
}


!llvm.module.flags = !{!0}
!llvm.ident = !{!1}

!0 = !{i32 1, !"wchar_size", i32 4}
!1 = !{!"clang version 10.0.0-4ubuntu1 "}
